target datalayout = "e-m:e-p270:32:32-p271:32:32-p272:64:64-i64:64-i128:128-f80:128-n8:16:32:64-S128"
target triple = "x86_64-pc-linux-gnu"

%struct.lua_State = type { %struct.GCRef, i8, i8, i8, i8, %struct.MRef, %struct.GCRef, ptr, ptr, %struct.MRef, %struct.MRef, %struct.GCRef, %struct.GCRef, ptr, i32 }
%struct.MRef = type { i64 }
%struct.GCRef = type { i64 }
%union.TValue = type { i64 }

; Function Attrs: nounwind uwtable
define internal i32 @setjitmode(ptr noundef %0, i32 noundef %1) #0 {
  %3 = alloca ptr, align 8
  %4 = alloca i32, align 4
  %5 = alloca i32, align 4
  store ptr %0, ptr %3, align 8, !tbaa !4
  store i32 %1, ptr %4, align 4, !tbaa !35
  call void @llvm.lifetime.start.p0(i64 4, ptr %5) #9
  store i32 0, ptr %5, align 4, !tbaa !35
  %6 = load ptr, ptr %3, align 8, !tbaa !4
  %7 = getelementptr inbounds nuw %struct.lua_State, ptr %6, i32 0, i32 7
  %8 = load ptr, ptr %7, align 8, !tbaa !36
  %9 = load ptr, ptr %3, align 8, !tbaa !4
  %10 = getelementptr inbounds nuw %struct.lua_State, ptr %9, i32 0, i32 8
  %11 = load ptr, ptr %10, align 8, !tbaa !16
  %12 = icmp eq ptr %8, %11
  br i1 %12, label %19, label %13

13:                                               ; preds = %2
  %14 = load ptr, ptr %3, align 8, !tbaa !4
  %15 = getelementptr inbounds nuw %struct.lua_State, ptr %14, i32 0, i32 7
  %16 = load ptr, ptr %15, align 8, !tbaa !36
  %17 = load i64, ptr %16, align 8, !tbaa !37
  %18 = icmp eq i64 %17, -1
  br i1 %18, label %19, label %22

19:                                               ; preds = %13, %2
  %20 = load i32, ptr %4, align 4, !tbaa !35
  %21 = or i32 %20, 0
  store i32 %21, ptr %4, align 4, !tbaa !35
  br label %93

22:                                               ; preds = %13
  %23 = load ptr, ptr %3, align 8, !tbaa !4
  %24 = getelementptr inbounds nuw %struct.lua_State, ptr %23, i32 0, i32 7
  %25 = load ptr, ptr %24, align 8, !tbaa !36
  %26 = load i64, ptr %25, align 8, !tbaa !37
  %27 = ashr i64 %26, 47
  %28 = trunc i64 %27 to i32
  %29 = icmp eq i32 %28, -9
  br i1 %29, label %38, label %30

30:                                               ; preds = %22
  %31 = load ptr, ptr %3, align 8, !tbaa !4
  %32 = getelementptr inbounds nuw %struct.lua_State, ptr %31, i32 0, i32 7
  %33 = load ptr, ptr %32, align 8, !tbaa !36
  %34 = load i64, ptr %33, align 8, !tbaa !37
  %35 = ashr i64 %34, 47
  %36 = trunc i64 %35 to i32
  %37 = icmp eq i32 %36, -8
  br i1 %37, label %38, label %39

38:                                               ; preds = %30, %22
  store i32 1, ptr %5, align 4, !tbaa !35
  br label %49

39:                                               ; preds = %30
  %40 = load ptr, ptr %3, align 8, !tbaa !4
  %41 = getelementptr inbounds nuw %struct.lua_State, ptr %40, i32 0, i32 7
  %42 = load ptr, ptr %41, align 8, !tbaa !36
  %43 = load i64, ptr %42, align 8, !tbaa !37
  %44 = ashr i64 %43, 47
  %45 = trunc i64 %44 to i32
  %46 = icmp eq i32 %45, -3
  br i1 %46, label %48, label %47

47:                                               ; preds = %39
  br label %106

48:                                               ; preds = %39
  br label %49

49:                                               ; preds = %48, %38
  %50 = load ptr, ptr %3, align 8, !tbaa !4
  %51 = getelementptr inbounds nuw %struct.lua_State, ptr %50, i32 0, i32 7
  %52 = load ptr, ptr %51, align 8, !tbaa !36
  %53 = getelementptr inbounds %union.TValue, ptr %52, i64 1
  %54 = load ptr, ptr %3, align 8, !tbaa !4
  %55 = getelementptr inbounds nuw %struct.lua_State, ptr %54, i32 0, i32 8
  %56 = load ptr, ptr %55, align 8, !tbaa !16
  %57 = icmp ult ptr %53, %56
  br i1 %57, label %58, label %89

58:                                               ; preds = %49
  %59 = load ptr, ptr %3, align 8, !tbaa !4
  %60 = getelementptr inbounds nuw %struct.lua_State, ptr %59, i32 0, i32 7
  %61 = load ptr, ptr %60, align 8, !tbaa !36
  %62 = getelementptr inbounds %union.TValue, ptr %61, i64 1
  %63 = load i64, ptr %62, align 8, !tbaa !37
  %64 = ashr i64 %63, 47
  %65 = trunc i64 %64 to i32
  %66 = icmp eq i32 %65, -2
  br i1 %66, label %76, label %67

67:                                               ; preds = %58
  %68 = load ptr, ptr %3, align 8, !tbaa !4
  %69 = getelementptr inbounds nuw %struct.lua_State, ptr %68, i32 0, i32 7
  %70 = load ptr, ptr %69, align 8, !tbaa !36
  %71 = getelementptr inbounds %union.TValue, ptr %70, i64 1
  %72 = load i64, ptr %71, align 8, !tbaa !37
  %73 = ashr i64 %72, 47
  %74 = trunc i64 %73 to i32
  %75 = icmp eq i32 %74, -3
  br i1 %75, label %76, label %89

76:                                               ; preds = %67, %58
  %77 = load ptr, ptr %3, align 8, !tbaa !4
  %78 = getelementptr inbounds nuw %struct.lua_State, ptr %77, i32 0, i32 7
  %79 = load ptr, ptr %78, align 8, !tbaa !36
  %80 = getelementptr inbounds %union.TValue, ptr %79, i64 1
  %81 = load i64, ptr %80, align 8, !tbaa !37
  %82 = ashr i64 %81, 47
  %83 = trunc i64 %82 to i32
  %84 = sub i32 -2, %83
  %85 = icmp ne i32 %84, 0
  %86 = select i1 %85, i32 3, i32 4
  %87 = load i32, ptr %4, align 4, !tbaa !35
  %88 = or i32 %87, %86
  store i32 %88, ptr %4, align 4, !tbaa !35
  br label %92

89:                                               ; preds = %67, %49
  %90 = load i32, ptr %4, align 4, !tbaa !35
  %91 = or i32 %90, 2
  store i32 %91, ptr %4, align 4, !tbaa !35
  br label %92

92:                                               ; preds = %89, %76
  br label %93

93:                                               ; preds = %92, %19
  %94 = load ptr, ptr %3, align 8, !tbaa !4
  %95 = load i32, ptr %5, align 4, !tbaa !35
  %96 = load i32, ptr %4, align 4, !tbaa !35
  %97 = call i32 @luaJIT_setmode(ptr noundef %94, i32 noundef %95, i32 noundef %96)
  %98 = icmp ne i32 %97, 1
  br i1 %98, label %99, label %108

99:                                               ; preds = %93
  %100 = load i32, ptr %4, align 4, !tbaa !35
  %101 = and i32 %100, 255
  %102 = icmp eq i32 %101, 0
  br i1 %102, label %103, label %105

103:                                              ; preds = %99
  %104 = load ptr, ptr %3, align 8, !tbaa !4
  call void @lj_err_caller(ptr noundef %104, i32 noundef 2074) #10
  unreachable

105:                                              ; preds = %99
  br label %106

106:                                              ; preds = %105, %47
  %107 = load ptr, ptr %3, align 8, !tbaa !4
  call void @lj_err_argt(ptr noundef %107, i32 noundef 1, i32 noundef 6) #10
  unreachable

108:                                              ; preds = %93
  call void @llvm.lifetime.end.p0(i64 4, ptr %5) #9
  ret i32 0
}

; Function Attrs: nounwind uwtable
define internal i32 @lj_cf_jit_on(ptr noundef %0) #0 {
  %2 = alloca ptr, align 8
  store ptr %0, ptr %2, align 8, !tbaa !4
  %3 = load ptr, ptr %2, align 8, !tbaa !4
  %4 = call i32 @setjitmode(ptr noundef %3, i32 noundef 256)
  ret i32 %4
}